; Function Attrs: nounwind uwtable
define internal i32 @get_rsa_payload_f3(i32 noundef %0, ptr noundef captures(address_is_null) %1, ptr noundef %2) #0 {
  %4 = alloca [10 x ptr], align 16
  %5 = getelementptr inbounds nuw i8, ptr %2, i64 32
  %6 = load ptr, ptr %5, align 8, !tbaa !35
  %7 = tail call i32 @EVP_PKEY_get_base_id(ptr noundef %6) #8
  %.not = icmp eq i32 %7, 6
  br i1 %.not, label %11, label %8

8:                                                ; preds = %3
  %9 = load ptr, ptr %5, align 8, !tbaa !35
  %10 = tail call i32 @EVP_PKEY_get_base_id(ptr noundef %9) #8
  %.not5 = icmp eq i32 %10, 912
  br i1 %.not5, label %11, label %get_rsa_payload_factor.exit

11:                                               ; preds = %8, %3
  %12 = load ptr, ptr %5, align 8, !tbaa !35
  %13 = tail call ptr @EVP_PKEY_get0_RSA(ptr noundef %12) #8
  %14 = tail call i32 @RSA_get_multi_prime_extra_count(ptr noundef %13) #8
  call void @llvm.lifetime.start.p0(i64 80, ptr nonnull %4) #8
  %.not7 = icmp eq i32 %14, 0
  br i1 %.not7, label %.thread, label %15

15:                                               ; preds = %11
  %16 = call i32 @RSA_get0_multi_prime_factors(ptr noundef %13, ptr noundef nonnull %4) #8
  %.not.i = icmp eq i32 %16, 0
  br i1 %.not.i, label %.thread, label %17

.thread:                                          ; preds = %15, %11
  call void @llvm.lifetime.end.p0(i64 80, ptr nonnull %4) #8
  br label %get_rsa_payload_factor.exit

17:                                               ; preds = %15
  %18 = load ptr, ptr %4, align 16, !tbaa !82
  call void @llvm.lifetime.end.p0(i64 80, ptr nonnull %4) #8
  %19 = icmp eq ptr %18, null
  br i1 %19, label %get_rsa_payload_factor.exit, label %20

20:                                               ; preds = %17
  %21 = getelementptr inbounds nuw i8, ptr %2, i64 48
  %22 = load ptr, ptr %21, align 8, !tbaa !37
  %23 = getelementptr inbounds nuw i8, ptr %22, i64 8
  %24 = load i32, ptr %23, align 8, !tbaa !57
  %.not.i.i = icmp eq i32 %24, 2
  br i1 %.not.i.i, label %25, label %get_rsa_payload_factor.exit

25:                                               ; preds = %20
  store ptr %18, ptr %5, align 8, !tbaa !35
  %26 = call i32 @default_fixup_args(i32 noundef %0, ptr noundef %1, ptr noundef nonnull %2)
  br label %get_rsa_payload_factor.exit

get_rsa_payload_factor.exit:                      ; preds = %25, %20, %17, %.thread, %8
  %.0 = phi i32 [ 0, %8 ], [ %26, %25 ], [ 0, %17 ], [ 0, %20 ], [ 0, %.thread ]
  ret i32 %.0
}